target datalayout = "e-m:e-p270:32:32-p271:32:32-p272:64:64-i64:64-i128:128-f80:128-n8:16:32:64-S128"
target triple = "x86_64-pc-linux-gnu"

%"class.doctest::String" = type { %union.anon }
%union.anon = type { %"struct.doctest::String::view", [8 x i8] }
%"struct.doctest::String::view" = type { ptr, i32, i32 }
%"class.Luau::AstExpr.base" = type { %"class.Luau::AstNode.base" }
%"class.Luau::AstNode.base" = type <{ ptr, i32, %"struct.Luau::Location" }>
%"struct.Luau::Location" = type { %"struct.Luau::Position", %"struct.Luau::Position" }
%"struct.Luau::Position" = type { i32, i32 }
%"struct.doctest::detail::ResultBuilder" = type { %"struct.doctest::AssertData" }
%"struct.doctest::AssertData" = type { ptr, i32, ptr, i32, ptr, i8, i8, %"class.doctest::String", %"class.doctest::String", i8, ptr, %"class.doctest::AssertData::StringContains" }
%"class.doctest::AssertData::StringContains" = type <{ %"class.doctest::Contains", i8, [7 x i8] }>
%"class.doctest::Contains" = type { %"class.doctest::String" }
%"class.std::__cxx11::basic_string" = type { %"struct.std::__cxx11::basic_string<char>::_Alloc_hider", i64, %union.anon.0 }
%"struct.std::__cxx11::basic_string<char>::_Alloc_hider" = type { ptr }
%union.anon.0 = type { i64, [8 x i8] }
%"struct.Luau::AstLocal" = type { %"struct.Luau::AstName", %"struct.Luau::Location", ptr, i64, i64, ptr }
%"struct.Luau::AstName" = type { ptr }
%"struct.doctest::detail::Result" = type { i8, %"class.doctest::String" }
%"struct.doctest::detail::Expression_lhs" = type <{ %"class.std::__cxx11::basic_string", i32, [4 x i8] }>
%"struct.doctest::detail::ExpressionDecomposer" = type { i32 }
%"class.Luau::AstExprLocal" = type <{ %"class.Luau::AstExpr.base", [4 x i8], ptr, i8, [7 x i8] }>

@.str = private unnamed_addr constant [1 x i8] zeroinitializer, align 1
@.str.56 = private unnamed_addr constant [117 x i8] c"generated/home/dtcxzyw/WorkSpace/Projects/compilers/llvm-opt-benchmark/bench/luau/luau/tests/AstJsonEncoder.test.cpp\00", align 1
@.str.178 = private unnamed_addr constant [4 x i8] c"foo\00", align 1
@.str.179 = private unnamed_addr constant [154 x i8] c"toJson(&exprLocal) == R\22({\22type\22:\22AstExprLocal\22,\22location\22:\220,0 - 0,0\22,\22local\22:{\22luauType\22:null,\22name\22:\22foo\22,\22type\22:\22AstLocal\22,\22location\22:\220,0 - 0,0\22}})\22\00", align 1
@.str.180 = private unnamed_addr constant [127 x i8] c"{\22type\22:\22AstExprLocal\22,\22location\22:\220,0 - 0,0\22,\22local\22:{\22luauType\22:null,\22name\22:\22foo\22,\22type\22:\22AstLocal\22,\22location\22:\220,0 - 0,0\22}}\00", align 1

; Function Attrs: mustprogress nounwind uwtable
define linkonce_odr dso_local void @_ZN7doctest6detail14Expression_lhsINSt7__cxx1112basic_stringIcSt11char_traitsIcESaIcEEEEC2EOS7_NS_10assertType4EnumE(ptr noundef nonnull align 8 dereferenceable(36) %0, ptr noundef nonnull align 8 dereferenceable(32) %1, i32 noundef %2) unnamed_addr #1 comdat align 2 {
  %4 = alloca ptr, align 8
  %5 = alloca ptr, align 8
  %6 = alloca i32, align 4
  store ptr %0, ptr %4, align 8
  store ptr %1, ptr %5, align 8
  store i32 %2, ptr %6, align 4
  %7 = load ptr, ptr %4, align 8
  %8 = getelementptr inbounds %"struct.doctest::detail::Expression_lhs", ptr %7, i32 0, i32 0
  %9 = load ptr, ptr %5, align 8
  call void @_ZNSt7__cxx1112basic_stringIcSt11char_traitsIcESaIcEEC1EOS4_(ptr noundef nonnull align 8 dereferenceable(32) %8, ptr noundef nonnull align 8 dereferenceable(32) %9) #10
  %10 = getelementptr inbounds %"struct.doctest::detail::Expression_lhs", ptr %7, i32 0, i32 1
  %11 = load i32, ptr %6, align 4
  store i32 %11, ptr %10, align 8
  ret void
}

; Function Attrs: mustprogress nounwind uwtable
define linkonce_odr dso_local void @_ZN4Luau8PositionC2Ejj(ptr noundef nonnull align 4 dereferenceable(8) %0, i32 noundef %1, i32 noundef %2) unnamed_addr #1 comdat align 2 {
  %4 = alloca ptr, align 8
  %5 = alloca i32, align 4
  %6 = alloca i32, align 4
  store ptr %0, ptr %4, align 8
  store i32 %1, ptr %5, align 4
  store i32 %2, ptr %6, align 4
  %7 = load ptr, ptr %4, align 8
  %8 = getelementptr inbounds %"struct.Luau::Position", ptr %7, i32 0, i32 0
  %9 = load i32, ptr %5, align 4
  store i32 %9, ptr %8, align 4
  %10 = getelementptr inbounds %"struct.Luau::Position", ptr %7, i32 0, i32 1
  %11 = load i32, ptr %6, align 4
  store i32 %11, ptr %10, align 4
  ret void
}

; Function Attrs: mustprogress nounwind uwtable
define linkonce_odr dso_local void @_ZN7doctest6detail14Expression_lhsINSt7__cxx1112basic_stringIcSt11char_traitsIcESaIcEEEED2Ev(ptr noundef nonnull align 8 dereferenceable(36) %0) unnamed_addr #1 comdat align 2 {
  %2 = alloca ptr, align 8
  store ptr %0, ptr %2, align 8
  %3 = load ptr, ptr %2, align 8
  %4 = getelementptr inbounds %"struct.doctest::detail::Expression_lhs", ptr %3, i32 0, i32 0
  call void @_ZNSt7__cxx1112basic_stringIcSt11char_traitsIcESaIcEED1Ev(ptr noundef nonnull align 8 dereferenceable(32) %4) #10
  ret void
}

; Function Attrs: mustprogress nounwind uwtable
define linkonce_odr dso_local void @_ZN7doctest6detail6ResultD2Ev(ptr noundef nonnull align 8 dereferenceable(32) %0) unnamed_addr #1 comdat align 2 {
  %2 = alloca ptr, align 8
  store ptr %0, ptr %2, align 8
  %3 = load ptr, ptr %2, align 8
  %4 = getelementptr inbounds %"struct.doctest::detail::Result", ptr %3, i32 0, i32 1
  call void @_ZN7doctest6StringD1Ev(ptr noundef nonnull align 8 dereferenceable(24) %4) #10
  ret void
}

; Function Attrs: mustprogress uwtable
define linkonce_odr dso_local void @_ZN7doctest6detail20ExpressionDecomposerlsINSt7__cxx1112basic_stringIcSt11char_traitsIcESaIcEEEEENS0_14Expression_lhsIT_EEOSA_(ptr dead_on_unwind noalias writable sret(%"struct.doctest::detail::Expression_lhs") align 8 %0, ptr noundef nonnull align 4 dereferenceable(4) %1, ptr noundef nonnull align 8 dereferenceable(32) %2) #4 comdat align 2 {
  %4 = alloca ptr, align 8
  %5 = alloca ptr, align 8
  %6 = alloca ptr, align 8
  store ptr %0, ptr %4, align 8
  store ptr %1, ptr %5, align 8
  store ptr %2, ptr %6, align 8
  %7 = load ptr, ptr %5, align 8
  %8 = load ptr, ptr %6, align 8
  %9 = getelementptr inbounds %"struct.doctest::detail::ExpressionDecomposer", ptr %7, i32 0, i32 0
  %10 = load i32, ptr %9, align 4
  call void @_ZN7doctest6detail14Expression_lhsINSt7__cxx1112basic_stringIcSt11char_traitsIcESaIcEEEEC2EOS7_NS_10assertType4EnumE(ptr noundef nonnull align 8 dereferenceable(36) %0, ptr noundef nonnull align 8 dereferenceable(32) %8, i32 noundef %10)
  ret void
}

; Function Attrs: mustprogress nounwind uwtable
define linkonce_odr dso_local void @_ZN4Luau8AstLocalC2ERKNS_7AstNameERKNS_8LocationEPS0_mmPNS_7AstTypeE(ptr noundef nonnull align 8 dereferenceable(56) %0, ptr noundef nonnull align 8 dereferenceable(8) %1, ptr noundef nonnull align 4 dereferenceable(16) %2, ptr noundef %3, i64 noundef %4, i64 noundef %5, ptr noundef %6) unnamed_addr #1 comdat align 2 {
  %8 = alloca ptr, align 8
  %9 = alloca ptr, align 8
  %10 = alloca ptr, align 8
  %11 = alloca ptr, align 8
  %12 = alloca i64, align 8
  %13 = alloca i64, align 8
  %14 = alloca ptr, align 8
  store ptr %0, ptr %8, align 8
  store ptr %1, ptr %9, align 8
  store ptr %2, ptr %10, align 8
  store ptr %3, ptr %11, align 8
  store i64 %4, ptr %12, align 8
  store i64 %5, ptr %13, align 8
  store ptr %6, ptr %14, align 8
  %15 = load ptr, ptr %8, align 8
  %16 = getelementptr inbounds %"struct.Luau::AstLocal", ptr %15, i32 0, i32 0
  %17 = load ptr, ptr %9, align 8
  call void @llvm.memcpy.p0.p0.i64(ptr align 8 %16, ptr align 8 %17, i64 8, i1 false)
  %18 = getelementptr inbounds %"struct.Luau::AstLocal", ptr %15, i32 0, i32 1
  %19 = load ptr, ptr %10, align 8
  call void @llvm.memcpy.p0.p0.i64(ptr align 8 %18, ptr align 4 %19, i64 16, i1 false)
  %20 = getelementptr inbounds %"struct.Luau::AstLocal", ptr %15, i32 0, i32 2
  %21 = load ptr, ptr %11, align 8
  store ptr %21, ptr %20, align 8
  %22 = getelementptr inbounds %"struct.Luau::AstLocal", ptr %15, i32 0, i32 3
  %23 = load i64, ptr %12, align 8
  store i64 %23, ptr %22, align 8
  %24 = getelementptr inbounds %"struct.Luau::AstLocal", ptr %15, i32 0, i32 4
  %25 = load i64, ptr %13, align 8
  store i64 %25, ptr %24, align 8
  %26 = getelementptr inbounds %"struct.Luau::AstLocal", ptr %15, i32 0, i32 5
  %27 = load ptr, ptr %14, align 8
  store ptr %27, ptr %26, align 8
  ret void
}

; Function Attrs: mustprogress uwtable
define linkonce_odr dso_local void @_ZN4Luau8LocationC2Ev(ptr noundef nonnull align 4 dereferenceable(16) %0) unnamed_addr #4 comdat align 2 {
  %2 = alloca ptr, align 8
  store ptr %0, ptr %2, align 8
  %3 = load ptr, ptr %2, align 8
  %4 = getelementptr inbounds %"struct.Luau::Location", ptr %3, i32 0, i32 0
  call void @_ZN4Luau8PositionC2Ejj(ptr noundef nonnull align 4 dereferenceable(8) %4, i32 noundef 0, i32 noundef 0)
  %5 = getelementptr inbounds %"struct.Luau::Location", ptr %3, i32 0, i32 1
  call void @_ZN4Luau8PositionC2Ejj(ptr noundef nonnull align 4 dereferenceable(8) %5, i32 noundef 0, i32 noundef 0)
  ret void
}

; Function Attrs: mustprogress nounwind uwtable
define linkonce_odr dso_local void @_ZN4Luau7AstNameC2EPKc(ptr noundef nonnull align 8 dereferenceable(8) %0, ptr noundef %1) unnamed_addr #1 comdat align 2 {
  %3 = alloca ptr, align 8
  %4 = alloca ptr, align 8
  store ptr %0, ptr %3, align 8
  store ptr %1, ptr %4, align 8
  %5 = load ptr, ptr %3, align 8
  %6 = getelementptr inbounds %"struct.Luau::AstName", ptr %5, i32 0, i32 0
  %7 = load ptr, ptr %4, align 8
  store ptr %7, ptr %6, align 8
  ret void
}

; Function Attrs: mustprogress uwtable
define internal void @_ZL20DOCTEST_ANON_FUNC_28v() #4 personality ptr @__gxx_personality_v0 {
  %1 = alloca %"struct.Luau::AstLocal", align 8
  %2 = alloca %"struct.Luau::AstName", align 8
  %3 = alloca %"struct.Luau::Location", align 4
  %4 = alloca %"class.Luau::AstExprLocal", align 8
  %5 = alloca %"struct.Luau::Location", align 4
  %6 = alloca %"struct.doctest::detail::ResultBuilder", align 8
  %7 = alloca %"class.doctest::String", align 8
  %8 = alloca ptr, align 8
  %9 = alloca i32, align 4
  %10 = alloca %"struct.doctest::detail::Result", align 8
  %11 = alloca %"struct.doctest::detail::Expression_lhs", align 8
  %12 = alloca %"struct.doctest::detail::ExpressionDecomposer", align 4
  %13 = alloca %"class.std::__cxx11::basic_string", align 8
  call void @_ZN4Luau7AstNameC2EPKc(ptr noundef nonnull align 8 dereferenceable(8) %2, ptr noundef @.str.178)
  call void @_ZN4Luau8LocationC2Ev(ptr noundef nonnull align 4 dereferenceable(16) %3)
  call void @_ZN4Luau8AstLocalC2ERKNS_7AstNameERKNS_8LocationEPS0_mmPNS_7AstTypeE(ptr noundef nonnull align 8 dereferenceable(56) %1, ptr noundef nonnull align 8 dereferenceable(8) %2, ptr noundef nonnull align 4 dereferenceable(16) %3, ptr noundef null, i64 noundef 0, i64 noundef 0, ptr noundef null)
  call void @_ZN4Luau8LocationC2Ev(ptr noundef nonnull align 4 dereferenceable(16) %5)
  call void @_ZN4Luau12AstExprLocalC1ERKNS_8LocationEPNS_8AstLocalEb(ptr noundef nonnull align 8 dereferenceable(41) %4, ptr noundef nonnull align 4 dereferenceable(16) %5, ptr noundef %1, i1 noundef zeroext false)
  br label %14

14:                                               ; preds = %0
  call void @_ZN7doctest6StringC1EPKc(ptr noundef nonnull align 8 dereferenceable(24) %7, ptr noundef @.str)
  invoke void @_ZN7doctest6detail13ResultBuilderC1ENS_10assertType4EnumEPKciS5_S5_RKNS_6StringE(ptr noundef nonnull align 8 dereferenceable(144) %6, i32 noundef 10, ptr noundef @.str.56, i32 noundef 202, ptr noundef @.str.179, ptr noundef @.str, ptr noundef nonnull align 8 dereferenceable(24) %7)
          to label %15 unwind label %21

15:                                               ; preds = %14
  call void @_ZN7doctest6StringD1Ev(ptr noundef nonnull align 8 dereferenceable(24) %7) #10
  invoke void @_ZN7doctest6detail20ExpressionDecomposerC1ENS_10assertType4EnumE(ptr noundef nonnull align 4 dereferenceable(4) %12, i32 noundef 10)
          to label %16 unwind label %25

16:                                               ; preds = %15
  invoke void @_ZN4Luau6toJsonB5cxx11EPNS_7AstNodeE(ptr dead_on_unwind writable sret(%"class.std::__cxx11::basic_string") align 8 %13, ptr noundef %4)
          to label %17 unwind label %25

17:                                               ; preds = %16
  invoke void @_ZN7doctest6detail20ExpressionDecomposerlsINSt7__cxx1112basic_stringIcSt11char_traitsIcESaIcEEEEENS0_14Expression_lhsIT_EEOSA_(ptr dead_on_unwind writable sret(%"struct.doctest::detail::Expression_lhs") align 8 %11, ptr noundef nonnull align 4 dereferenceable(4) %12, ptr noundef nonnull align 8 dereferenceable(32) %13)
          to label %18 unwind label %29

18:                                               ; preds = %17
  invoke void @_ZN7doctest6detail14Expression_lhsINSt7__cxx1112basic_stringIcSt11char_traitsIcESaIcEEEEeqIRA127_KcEEDTcmcvveqclL_ZNS0_7declvalIS7_EEOT_vEEclsr7doctest6detailE7declvalISE_EEtlNS0_6ResultEEESF_(ptr dead_on_unwind writable sret(%"struct.doctest::detail::Result") align 8 %10, ptr noundef nonnull align 8 dereferenceable(36) %11, ptr noundef nonnull align 1 dereferenceable(127) @.str.180)
          to label %19 unwind label %33

19:                                               ; preds = %18
  invoke void @_ZN7doctest6detail13ResultBuilder9setResultERKNS0_6ResultE(ptr noundef nonnull align 8 dereferenceable(144) %6, ptr noundef nonnull align 8 dereferenceable(32) %10)
          to label %20 unwind label %37

20:                                               ; preds = %19
  call void @_ZN7doctest6detail6ResultD2Ev(ptr noundef nonnull align 8 dereferenceable(32) %10) #10
  call void @_ZN7doctest6detail14Expression_lhsINSt7__cxx1112basic_stringIcSt11char_traitsIcESaIcEEEED2Ev(ptr noundef nonnull align 8 dereferenceable(36) %11) #10
  call void @_ZNSt7__cxx1112basic_stringIcSt11char_traitsIcESaIcEED1Ev(ptr noundef nonnull align 8 dereferenceable(32) %13) #10
  br label %48

21:                                               ; preds = %14
  %22 = landingpad { ptr, i32 }
          cleanup
  %23 = extractvalue { ptr, i32 } %22, 0
  store ptr %23, ptr %8, align 8
  %24 = extractvalue { ptr, i32 } %22, 1
  store i32 %24, ptr %9, align 4
  call void @_ZN7doctest6StringD1Ev(ptr noundef nonnull align 8 dereferenceable(24) %7) #10
  br label %65

25:                                               ; preds = %16, %15
  %26 = landingpad { ptr, i32 }
          catch ptr null
  %27 = extractvalue { ptr, i32 } %26, 0
  store ptr %27, ptr %8, align 8
  %28 = extractvalue { ptr, i32 } %26, 1
  store i32 %28, ptr %9, align 4
  br label %43

29:                                               ; preds = %17
  %30 = landingpad { ptr, i32 }
          catch ptr null
  %31 = extractvalue { ptr, i32 } %30, 0
  store ptr %31, ptr %8, align 8
  %32 = extractvalue { ptr, i32 } %30, 1
  store i32 %32, ptr %9, align 4
  br label %42

33:                                               ; preds = %18
  %34 = landingpad { ptr, i32 }
          catch ptr null
  %35 = extractvalue { ptr, i32 } %34, 0
  store ptr %35, ptr %8, align 8
  %36 = extractvalue { ptr, i32 } %34, 1
  store i32 %36, ptr %9, align 4
  br label %41

37:                                               ; preds = %19
  %38 = landingpad { ptr, i32 }
          catch ptr null
  %39 = extractvalue { ptr, i32 } %38, 0
  store ptr %39, ptr %8, align 8
  %40 = extractvalue { ptr, i32 } %38, 1
  store i32 %40, ptr %9, align 4
  call void @_ZN7doctest6detail6ResultD2Ev(ptr noundef nonnull align 8 dereferenceable(32) %10) #10
  br label %41

41:                                               ; preds = %37, %33
  call void @_ZN7doctest6detail14Expression_lhsINSt7__cxx1112basic_stringIcSt11char_traitsIcESaIcEEEED2Ev(ptr noundef nonnull align 8 dereferenceable(36) %11) #10
  br label %42

42:                                               ; preds = %41, %29
  call void @_ZNSt7__cxx1112basic_stringIcSt11char_traitsIcESaIcEED1Ev(ptr noundef nonnull align 8 dereferenceable(32) %13) #10
  br label %43

43:                                               ; preds = %42, %25
  %44 = load ptr, ptr %8, align 8
  %45 = call ptr @__cxa_begin_catch(ptr %44) #10
  invoke void @_ZN7doctest6detail13ResultBuilder18translateExceptionEv(ptr noundef nonnull align 8 dereferenceable(144) %6)
          to label %46 unwind label %52

46:                                               ; preds = %43
  invoke void @__cxa_end_catch()
          to label %47 unwind label %56

47:                                               ; preds = %46
  br label %48

48:                                               ; preds = %47, %20
  %49 = invoke noundef zeroext i1 @_ZN7doctest6detail13ResultBuilder3logEv(ptr noundef nonnull align 8 dereferenceable(144) %6)
          to label %50 unwind label %56

50:                                               ; preds = %48
  br i1 %49, label %51, label %61

51:                                               ; preds = %50
  call void asm sideeffect "int $$3\0A", "~{dirflag},~{fpsr},~{flags}"() #10, !srcloc !17
  br label %61

52:                                               ; preds = %43
  %53 = landingpad { ptr, i32 }
          cleanup
  %54 = extractvalue { ptr, i32 } %53, 0
  store ptr %54, ptr %8, align 8
  %55 = extractvalue { ptr, i32 } %53, 1
  store i32 %55, ptr %9, align 4
  invoke void @__cxa_end_catch()
          to label %60 unwind label %70

56:                                               ; preds = %61, %48, %46
  %57 = landingpad { ptr, i32 }
          cleanup
  %58 = extractvalue { ptr, i32 } %57, 0
  store ptr %58, ptr %8, align 8
  %59 = extractvalue { ptr, i32 } %57, 1
  store i32 %59, ptr %9, align 4
  br label %64

60:                                               ; preds = %52
  br label %64

61:                                               ; preds = %51, %50
  invoke void @_ZNK7doctest6detail13ResultBuilder5reactEv(ptr noundef nonnull align 8 dereferenceable(144) %6)
          to label %62 unwind label %56

62:                                               ; preds = %61
  call void @_ZN7doctest6detail13ResultBuilderD2Ev(ptr noundef nonnull align 8 dereferenceable(144) %6) #10
  br label %63

63:                                               ; preds = %62
  ret void

64:                                               ; preds = %60, %56
  call void @_ZN7doctest6detail13ResultBuilderD2Ev(ptr noundef nonnull align 8 dereferenceable(144) %6) #10
  br label %65

65:                                               ; preds = %64, %21
  %66 = load ptr, ptr %8, align 8
  %67 = load i32, ptr %9, align 4
  %68 = insertvalue { ptr, i32 } poison, ptr %66, 0
  %69 = insertvalue { ptr, i32 } %68, i32 %67, 1
  resume { ptr, i32 } %69

70:                                               ; preds = %52
  %71 = landingpad { ptr, i32 }
          catch ptr null
  %72 = extractvalue { ptr, i32 } %71, 0
  call void @__clang_call_terminate(ptr %72) #11
  unreachable
}