; Function Attrs: mustprogress uwtable
define internal void @_ZL20DOCTEST_ANON_FUNC_28v() #3 personality ptr @__gxx_personality_v0 {
  %1 = alloca %"struct.Luau::AstLocal", align 8
  %2 = alloca %"class.Luau::AstExprLocal", align 8
  %3 = alloca %"struct.Luau::Location", align 4
  %4 = alloca %"struct.doctest::detail::ResultBuilder", align 8
  %5 = alloca %"class.doctest::String", align 8
  %6 = alloca %"struct.doctest::detail::Result", align 8
  %7 = alloca %"struct.doctest::detail::Expression_lhs", align 8
  %8 = alloca %"struct.doctest::detail::ExpressionDecomposer", align 4
  %9 = alloca %"class.std::__cxx11::basic_string", align 8
  %10 = getelementptr inbounds i8, ptr %1, i64 8
  call void @llvm.memset.p0.i64(ptr noundef nonnull align 8 dereferenceable(16) %10, i8 0, i64 16, i1 false)
  store i64 ptrtoint (ptr @.str.178 to i64), ptr %1, align 8
  %11 = getelementptr inbounds i8, ptr %1, i64 24
  call void @llvm.memset.p0.i64(ptr noundef nonnull align 8 dereferenceable(32) %11, i8 0, i64 32, i1 false)
  call void @llvm.memset.p0.i64(ptr noundef nonnull align 4 dereferenceable(16) %3, i8 0, i64 16, i1 false)
  call void @_ZN4Luau12AstExprLocalC1ERKNS_8LocationEPNS_8AstLocalEb(ptr noundef nonnull align 8 dereferenceable(41) %2, ptr noundef nonnull align 4 dereferenceable(16) %3, ptr noundef nonnull %1, i1 noundef zeroext false)
  call void @_ZN7doctest6StringC1EPKc(ptr noundef nonnull align 8 dereferenceable(24) %5, ptr noundef nonnull @.str)
  invoke void @_ZN7doctest6detail13ResultBuilderC1ENS_10assertType4EnumEPKciS5_S5_RKNS_6StringE(ptr noundef nonnull align 8 dereferenceable(144) %4, i32 noundef 10, ptr noundef nonnull @.str.56, i32 noundef 202, ptr noundef nonnull @.str.179, ptr noundef nonnull @.str, ptr noundef nonnull align 8 dereferenceable(24) %5)
          to label %12 unwind label %20

12:                                               ; preds = %0
  call void @_ZN7doctest6StringD1Ev(ptr noundef nonnull align 8 dereferenceable(24) %5) #12
  invoke void @_ZN7doctest6detail20ExpressionDecomposerC1ENS_10assertType4EnumE(ptr noundef nonnull align 4 dereferenceable(4) %8, i32 noundef 10)
          to label %13 unwind label %22

13:                                               ; preds = %12
  invoke void @_ZN4Luau6toJsonB5cxx11EPNS_7AstNodeE(ptr dead_on_unwind nonnull writable sret(%"class.std::__cxx11::basic_string") align 8 %9, ptr noundef nonnull %2)
          to label %14 unwind label %22

14:                                               ; preds = %13
  call void @llvm.experimental.noalias.scope.decl(metadata !31)
  %15 = load i32, ptr %8, align 4, !noalias !31
  call void @_ZNSt7__cxx1112basic_stringIcSt11char_traitsIcESaIcEEC1EOS4_(ptr noundef nonnull align 8 dereferenceable(32) %7, ptr noundef nonnull align 8 dereferenceable(32) %9) #12
  %16 = getelementptr inbounds i8, ptr %7, i64 32
  store i32 %15, ptr %16, align 8, !alias.scope !31
  invoke void @_ZN7doctest6detail14Expression_lhsINSt7__cxx1112basic_stringIcSt11char_traitsIcESaIcEEEEeqIRA127_KcEEDTcmcvveqclL_ZNS0_7declvalIS7_EEOT_vEEclsr7doctest6detailE7declvalISE_EEtlNS0_6ResultEEESF_(ptr dead_on_unwind nonnull writable sret(%"struct.doctest::detail::Result") align 8 %6, ptr noundef nonnull align 8 dereferenceable(36) %7, ptr noundef nonnull align 1 dereferenceable(127) @.str.180)
          to label %17 unwind label %24

17:                                               ; preds = %14
  invoke void @_ZN7doctest6detail13ResultBuilder9setResultERKNS0_6ResultE(ptr noundef nonnull align 8 dereferenceable(144) %4, ptr noundef nonnull align 8 dereferenceable(32) %6)
          to label %18 unwind label %26

18:                                               ; preds = %17
  %19 = getelementptr inbounds i8, ptr %6, i64 8
  call void @_ZN7doctest6StringD1Ev(ptr noundef nonnull align 8 dereferenceable(24) %19) #12
  call void @_ZNSt7__cxx1112basic_stringIcSt11char_traitsIcESaIcEED1Ev(ptr noundef nonnull align 8 dereferenceable(32) %7) #12
  call void @_ZNSt7__cxx1112basic_stringIcSt11char_traitsIcESaIcEED1Ev(ptr noundef nonnull align 8 dereferenceable(32) %9) #12
  br label %33

20:                                               ; preds = %0
  %21 = landingpad { ptr, i32 }
          cleanup
  call void @_ZN7doctest6StringD1Ev(ptr noundef nonnull align 8 dereferenceable(24) %5) #12
  br label %47

22:                                               ; preds = %13, %12
  %23 = landingpad { ptr, i32 }
          catch ptr null
  br label %30

24:                                               ; preds = %14
  %25 = landingpad { ptr, i32 }
          catch ptr null
  br label %29

26:                                               ; preds = %17
  %27 = landingpad { ptr, i32 }
          catch ptr null
  %28 = getelementptr inbounds i8, ptr %6, i64 8
  call void @_ZN7doctest6StringD1Ev(ptr noundef nonnull align 8 dereferenceable(24) %28) #12
  br label %29

29:                                               ; preds = %26, %24
  %.pn = phi { ptr, i32 } [ %27, %26 ], [ %25, %24 ]
  call void @_ZNSt7__cxx1112basic_stringIcSt11char_traitsIcESaIcEED1Ev(ptr noundef nonnull align 8 dereferenceable(32) %7) #12
  call void @_ZNSt7__cxx1112basic_stringIcSt11char_traitsIcESaIcEED1Ev(ptr noundef nonnull align 8 dereferenceable(32) %9) #12
  br label %30

30:                                               ; preds = %29, %22
  %.pn.pn.pn = phi { ptr, i32 } [ %.pn, %29 ], [ %23, %22 ]
  %.2 = extractvalue { ptr, i32 } %.pn.pn.pn, 0
  %31 = call ptr @__cxa_begin_catch(ptr %.2) #12
  invoke void @_ZN7doctest6detail13ResultBuilder18translateExceptionEv(ptr noundef nonnull align 8 dereferenceable(144) %4)
          to label %32 unwind label %37

32:                                               ; preds = %30
  invoke void @__cxa_end_catch()
          to label %33 unwind label %39

33:                                               ; preds = %32, %18
  %34 = invoke noundef zeroext i1 @_ZN7doctest6detail13ResultBuilder3logEv(ptr noundef nonnull align 8 dereferenceable(144) %4)
          to label %35 unwind label %39

35:                                               ; preds = %33
  br i1 %34, label %36, label %41

36:                                               ; preds = %35
  call void asm sideeffect "int $$3\0A", "~{dirflag},~{fpsr},~{flags}"() #12, !srcloc !34
  br label %41

37:                                               ; preds = %30
  %38 = landingpad { ptr, i32 }
          cleanup
  invoke void @__cxa_end_catch()
          to label %46 unwind label %48

39:                                               ; preds = %41, %33, %32
  %40 = landingpad { ptr, i32 }
          cleanup
  br label %46

41:                                               ; preds = %36, %35
  invoke void @_ZNK7doctest6detail13ResultBuilder5reactEv(ptr noundef nonnull align 8 dereferenceable(144) %4)
          to label %42 unwind label %39

42:                                               ; preds = %41
  %43 = getelementptr inbounds i8, ptr %4, i64 112
  call void @_ZN7doctest6StringD1Ev(ptr noundef nonnull align 8 dereferenceable(24) %43) #12
  %44 = getelementptr inbounds i8, ptr %4, i64 72
  call void @_ZN7doctest6StringD1Ev(ptr noundef nonnull align 8 dereferenceable(24) %44) #12
  %45 = getelementptr inbounds i8, ptr %4, i64 48
  call void @_ZN7doctest6StringD1Ev(ptr noundef nonnull align 8 dereferenceable(24) %45) #12
  ret void

46:                                               ; preds = %37, %39
  %.pn4 = phi { ptr, i32 } [ %40, %39 ], [ %38, %37 ]
  call void @_ZN7doctest6detail13ResultBuilderD2Ev(ptr noundef nonnull align 8 dereferenceable(144) %4) #12
  br label %47

47:                                               ; preds = %46, %20
  %.pn4.pn = phi { ptr, i32 } [ %.pn4, %46 ], [ %21, %20 ]
  resume { ptr, i32 } %.pn4.pn

48:                                               ; preds = %37
  %49 = landingpad { ptr, i32 }
          catch ptr null
  %50 = extractvalue { ptr, i32 } %49, 0
  call void @__clang_call_terminate(ptr %50) #13
  unreachable
}